target datalayout = "e-m:e-p270:32:32-p271:32:32-p272:64:64-i64:64-i128:128-f80:128-n8:16:32:64-S128"
target triple = "x86_64-unknown-linux-gnu"

%class.btGeneric6DofSpring2Constraint = type <{ %class.btTypedConstraint, %class.btTransform, %class.btTransform, [3 x %class.btJacobianEntry], [3 x %class.btJacobianEntry], %class.btTranslationalLimitMotor2, [3 x %class.btRotationalLimitMotor2], i32, %class.btTransform, %class.btTransform, %class.btVector3, [3 x %class.btVector3], %class.btVector3, float, float, i8, [3 x i8], i32, [4 x i8] }>
%class.btTypedConstraint = type { ptr, %struct.btTypedObject, i32, %union.anon.0, float, i8, i8, i32, ptr, ptr, float, float, ptr }
%struct.btTypedObject = type { i32 }
%union.anon.0 = type { ptr }
%class.btJacobianEntry = type { %class.btVector3, %class.btVector3, %class.btVector3, %class.btVector3, %class.btVector3, float }
%class.btTranslationalLimitMotor2 = type { %class.btVector3, %class.btVector3, %class.btVector3, %class.btVector3, %class.btVector3, %class.btVector3, %class.btVector3, [3 x i8], [3 x i8], [3 x i8], %class.btVector3, %class.btVector3, [3 x i8], %class.btVector3, [3 x i8], %class.btVector3, %class.btVector3, %class.btVector3, %class.btVector3, %class.btVector3, %class.btVector3, [3 x i32] }
%class.btRotationalLimitMotor2 = type { float, float, float, float, float, float, float, i8, float, float, i8, float, i8, float, i8, float, i8, float, float, float, float, i32 }
%class.btTransform = type { %class.btMatrix3x3, %class.btVector3 }
%class.btMatrix3x3 = type { [3 x %class.btVector3] }
%class.btVector3 = type { [4 x float] }
%"struct.btTypedConstraint::btConstraintInfo2" = type { float, float, ptr, ptr, ptr, ptr, i32, ptr, ptr, ptr, ptr, i32, float }

@__const._ZN30btGeneric6DofSpring2Constraint16setAngularLimitsEPN17btTypedConstraint17btConstraintInfo2EiRK11btTransformS5_RK9btVector3S8_S8_S8_.cIdx = private unnamed_addr constant [3 x i32] [i32 0, i32 1, i32 2], align 4

; Function Attrs: mustprogress nounwind uwtable
define linkonce_odr dso_local { <2 x float>, <2 x float> } @_ZNK30btGeneric6DofSpring2Constraint7getAxisEi(ptr noundef nonnull align 8 dereferenceable(1484) %this, i32 noundef %axis_index) #1 comdat align 2 {
entry:
  %retval = alloca %class.btVector3, align 4
  %this.addr = alloca ptr, align 8
  %axis_index.addr = alloca i32, align 4
  store ptr %this, ptr %this.addr, align 8
  store i32 %axis_index, ptr %axis_index.addr, align 4
  %this1 = load ptr, ptr %this.addr, align 8
  %m_calculatedAxis = getelementptr inbounds %class.btGeneric6DofSpring2Constraint, ptr %this1, i32 0, i32 11
  %0 = load i32, ptr %axis_index.addr, align 4
  %idxprom = sext i32 %0 to i64
  %arrayidx = getelementptr inbounds [3 x %class.btVector3], ptr %m_calculatedAxis, i64 0, i64 %idxprom
  call void @llvm.memcpy.p0.p0.i64(ptr align 4 %retval, ptr align 4 %arrayidx, i64 16, i1 false)
  %coerce.dive = getelementptr inbounds %class.btVector3, ptr %retval, i32 0, i32 0
  %1 = load { <2 x float>, <2 x float> }, ptr %coerce.dive, align 4
  ret { <2 x float>, <2 x float> } %1
}

; Function Attrs: mustprogress uwtable
define dso_local noundef i32 @_ZN30btGeneric6DofSpring2Constraint16setAngularLimitsEPN17btTypedConstraint17btConstraintInfo2EiRK11btTransformS5_RK9btVector3S8_S8_S8_(ptr noundef nonnull align 8 dereferenceable(1484) %this, ptr noundef %info, i32 noundef %row_offset, ptr noundef nonnull align 4 dereferenceable(64) %transA, ptr noundef nonnull align 4 dereferenceable(64) %transB, ptr noundef nonnull align 4 dereferenceable(16) %linVelA, ptr noundef nonnull align 4 dereferenceable(16) %linVelB, ptr noundef nonnull align 4 dereferenceable(16) %angVelA, ptr noundef nonnull align 4 dereferenceable(16) %angVelB) #4 align 2 {
entry:
  %this.addr = alloca ptr, align 8
  %info.addr = alloca ptr, align 8
  %row_offset.addr = alloca i32, align 4
  %transA.addr = alloca ptr, align 8
  %transB.addr = alloca ptr, align 8
  %linVelA.addr = alloca ptr, align 8
  %linVelB.addr = alloca ptr, align 8
  %angVelA.addr = alloca ptr, align 8
  %angVelB.addr = alloca ptr, align 8
  %row = alloca i32, align 4
  %cIdx = alloca [3 x i32], align 4
  %ii = alloca i32, align 4
  %i = alloca i32, align 4
  %axis = alloca %class.btVector3, align 4
  %flags = alloca i32, align 4
  store ptr %this, ptr %this.addr, align 8
  store ptr %info, ptr %info.addr, align 8
  store i32 %row_offset, ptr %row_offset.addr, align 4
  store ptr %transA, ptr %transA.addr, align 8
  store ptr %transB, ptr %transB.addr, align 8
  store ptr %linVelA, ptr %linVelA.addr, align 8
  store ptr %linVelB, ptr %linVelB.addr, align 8
  store ptr %angVelA, ptr %angVelA.addr, align 8
  store ptr %angVelB, ptr %angVelB.addr, align 8
  %this1 = load ptr, ptr %this.addr, align 8
  %0 = load i32, ptr %row_offset.addr, align 4
  store i32 %0, ptr %row, align 4
  call void @llvm.memcpy.p0.p0.i64(ptr align 4 %cIdx, ptr align 4 @__const._ZN30btGeneric6DofSpring2Constraint16setAngularLimitsEPN17btTypedConstraint17btConstraintInfo2EiRK11btTransformS5_RK9btVector3S8_S8_S8_.cIdx, i64 12, i1 false)
  %m_rotateOrder = getelementptr inbounds %class.btGeneric6DofSpring2Constraint, ptr %this1, i32 0, i32 7
  %1 = load i32, ptr %m_rotateOrder, align 8
  switch i32 %1, label %sw.default [
    i32 0, label %sw.bb
    i32 1, label %sw.bb4
    i32 2, label %sw.bb8
    i32 3, label %sw.bb12
    i32 4, label %sw.bb16
    i32 5, label %sw.bb20
  ]

sw.bb:                                            ; preds = %entry
  %arrayidx = getelementptr inbounds [3 x i32], ptr %cIdx, i64 0, i64 0
  store i32 0, ptr %arrayidx, align 4
  %arrayidx2 = getelementptr inbounds [3 x i32], ptr %cIdx, i64 0, i64 1
  store i32 1, ptr %arrayidx2, align 4
  %arrayidx3 = getelementptr inbounds [3 x i32], ptr %cIdx, i64 0, i64 2
  store i32 2, ptr %arrayidx3, align 4
  br label %sw.epilog

sw.bb4:                                           ; preds = %entry
  %arrayidx5 = getelementptr inbounds [3 x i32], ptr %cIdx, i64 0, i64 0
  store i32 0, ptr %arrayidx5, align 4
  %arrayidx6 = getelementptr inbounds [3 x i32], ptr %cIdx, i64 0, i64 1
  store i32 2, ptr %arrayidx6, align 4
  %arrayidx7 = getelementptr inbounds [3 x i32], ptr %cIdx, i64 0, i64 2
  store i32 1, ptr %arrayidx7, align 4
  br label %sw.epilog

sw.bb8:                                           ; preds = %entry
  %arrayidx9 = getelementptr inbounds [3 x i32], ptr %cIdx, i64 0, i64 0
  store i32 1, ptr %arrayidx9, align 4
  %arrayidx10 = getelementptr inbounds [3 x i32], ptr %cIdx, i64 0, i64 1
  store i32 0, ptr %arrayidx10, align 4
  %arrayidx11 = getelementptr inbounds [3 x i32], ptr %cIdx, i64 0, i64 2
  store i32 2, ptr %arrayidx11, align 4
  br label %sw.epilog

sw.bb12:                                          ; preds = %entry
  %arrayidx13 = getelementptr inbounds [3 x i32], ptr %cIdx, i64 0, i64 0
  store i32 1, ptr %arrayidx13, align 4
  %arrayidx14 = getelementptr inbounds [3 x i32], ptr %cIdx, i64 0, i64 1
  store i32 2, ptr %arrayidx14, align 4
  %arrayidx15 = getelementptr inbounds [3 x i32], ptr %cIdx, i64 0, i64 2
  store i32 0, ptr %arrayidx15, align 4
  br label %sw.epilog

sw.bb16:                                          ; preds = %entry
  %arrayidx17 = getelementptr inbounds [3 x i32], ptr %cIdx, i64 0, i64 0
  store i32 2, ptr %arrayidx17, align 4
  %arrayidx18 = getelementptr inbounds [3 x i32], ptr %cIdx, i64 0, i64 1
  store i32 0, ptr %arrayidx18, align 4
  %arrayidx19 = getelementptr inbounds [3 x i32], ptr %cIdx, i64 0, i64 2
  store i32 1, ptr %arrayidx19, align 4
  br label %sw.epilog

sw.bb20:                                          ; preds = %entry
  %arrayidx21 = getelementptr inbounds [3 x i32], ptr %cIdx, i64 0, i64 0
  store i32 2, ptr %arrayidx21, align 4
  %arrayidx22 = getelementptr inbounds [3 x i32], ptr %cIdx, i64 0, i64 1
  store i32 1, ptr %arrayidx22, align 4
  %arrayidx23 = getelementptr inbounds [3 x i32], ptr %cIdx, i64 0, i64 2
  store i32 0, ptr %arrayidx23, align 4
  br label %sw.epilog

sw.default:                                       ; preds = %entry
  br label %sw.epilog

sw.epilog:                                        ; preds = %sw.default, %sw.bb20, %sw.bb16, %sw.bb12, %sw.bb8, %sw.bb4, %sw.bb
  store i32 0, ptr %ii, align 4
  br label %for.cond

for.cond:                                         ; preds = %for.inc, %sw.epilog
  %2 = load i32, ptr %ii, align 4
  %cmp = icmp slt i32 %2, 3
  br i1 %cmp, label %for.body, label %for.end

for.body:                                         ; preds = %for.cond
  %3 = load i32, ptr %ii, align 4
  %idxprom = sext i32 %3 to i64
  %arrayidx24 = getelementptr inbounds [3 x i32], ptr %cIdx, i64 0, i64 %idxprom
  %4 = load i32, ptr %arrayidx24, align 4
  store i32 %4, ptr %i, align 4
  %m_angularLimits = getelementptr inbounds %class.btGeneric6DofSpring2Constraint, ptr %this1, i32 0, i32 6
  %5 = load i32, ptr %i, align 4
  %idxprom25 = sext i32 %5 to i64
  %arrayidx26 = getelementptr inbounds [3 x %class.btRotationalLimitMotor2], ptr %m_angularLimits, i64 0, i64 %idxprom25
  %m_currentLimit = getelementptr inbounds %class.btRotationalLimitMotor2, ptr %arrayidx26, i32 0, i32 21
  %6 = load i32, ptr %m_currentLimit, align 4
  %tobool = icmp ne i32 %6, 0
  br i1 %tobool, label %if.then, label %lor.lhs.false

lor.lhs.false:                                    ; preds = %for.body
  %m_angularLimits27 = getelementptr inbounds %class.btGeneric6DofSpring2Constraint, ptr %this1, i32 0, i32 6
  %7 = load i32, ptr %i, align 4
  %idxprom28 = sext i32 %7 to i64
  %arrayidx29 = getelementptr inbounds [3 x %class.btRotationalLimitMotor2], ptr %m_angularLimits27, i64 0, i64 %idxprom28
  %m_enableMotor = getelementptr inbounds %class.btRotationalLimitMotor2, ptr %arrayidx29, i32 0, i32 7
  %8 = load i8, ptr %m_enableMotor, align 4
  %tobool30 = trunc i8 %8 to i1
  br i1 %tobool30, label %if.then, label %lor.lhs.false31

lor.lhs.false31:                                  ; preds = %lor.lhs.false
  %m_angularLimits32 = getelementptr inbounds %class.btGeneric6DofSpring2Constraint, ptr %this1, i32 0, i32 6
  %9 = load i32, ptr %i, align 4
  %idxprom33 = sext i32 %9 to i64
  %arrayidx34 = getelementptr inbounds [3 x %class.btRotationalLimitMotor2], ptr %m_angularLimits32, i64 0, i64 %idxprom33
  %m_enableSpring = getelementptr inbounds %class.btRotationalLimitMotor2, ptr %arrayidx34, i32 0, i32 12
  %10 = load i8, ptr %m_enableSpring, align 8
  %tobool35 = trunc i8 %10 to i1
  br i1 %tobool35, label %if.then, label %if.end71

if.then:                                          ; preds = %lor.lhs.false31, %lor.lhs.false, %for.body
  %11 = load i32, ptr %i, align 4
  %call = call { <2 x float>, <2 x float> } @_ZNK30btGeneric6DofSpring2Constraint7getAxisEi(ptr noundef nonnull align 8 dereferenceable(1484) %this1, i32 noundef %11)
  %coerce.dive = getelementptr inbounds %class.btVector3, ptr %axis, i32 0, i32 0
  %12 = getelementptr inbounds { <2 x float>, <2 x float> }, ptr %coerce.dive, i32 0, i32 0
  %13 = extractvalue { <2 x float>, <2 x float> } %call, 0
  store <2 x float> %13, ptr %12, align 4
  %14 = getelementptr inbounds { <2 x float>, <2 x float> }, ptr %coerce.dive, i32 0, i32 1
  %15 = extractvalue { <2 x float>, <2 x float> } %call, 1
  store <2 x float> %15, ptr %14, align 4
  %m_flags = getelementptr inbounds %class.btGeneric6DofSpring2Constraint, ptr %this1, i32 0, i32 17
  %16 = load i32, ptr %m_flags, align 8
  %17 = load i32, ptr %i, align 4
  %add = add nsw i32 %17, 3
  %mul = mul nsw i32 %add, 4
  %shr = ashr i32 %16, %mul
  store i32 %shr, ptr %flags, align 4
  %18 = load i32, ptr %flags, align 4
  %and = and i32 %18, 1
  %tobool36 = icmp ne i32 %and, 0
  br i1 %tobool36, label %if.end, label %if.then37

if.then37:                                        ; preds = %if.then
  %19 = load ptr, ptr %info.addr, align 8
  %cfm = getelementptr inbounds %"struct.btTypedConstraint::btConstraintInfo2", ptr %19, i32 0, i32 8
  %20 = load ptr, ptr %cfm, align 8
  %arrayidx38 = getelementptr inbounds float, ptr %20, i64 0
  %21 = load float, ptr %arrayidx38, align 4
  %m_angularLimits39 = getelementptr inbounds %class.btGeneric6DofSpring2Constraint, ptr %this1, i32 0, i32 6
  %22 = load i32, ptr %i, align 4
  %idxprom40 = sext i32 %22 to i64
  %arrayidx41 = getelementptr inbounds [3 x %class.btRotationalLimitMotor2], ptr %m_angularLimits39, i64 0, i64 %idxprom40
  %m_stopCFM = getelementptr inbounds %class.btRotationalLimitMotor2, ptr %arrayidx41, i32 0, i32 4
  store float %21, ptr %m_stopCFM, align 8
  br label %if.end

if.end:                                           ; preds = %if.then37, %if.then
  %23 = load i32, ptr %flags, align 4
  %and42 = and i32 %23, 2
  %tobool43 = icmp ne i32 %and42, 0
  br i1 %tobool43, label %if.end48, label %if.then44

if.then44:                                        ; preds = %if.end
  %24 = load ptr, ptr %info.addr, align 8
  %erp = getelementptr inbounds %"struct.btTypedConstraint::btConstraintInfo2", ptr %24, i32 0, i32 1
  %25 = load float, ptr %erp, align 4
  %m_angularLimits45 = getelementptr inbounds %class.btGeneric6DofSpring2Constraint, ptr %this1, i32 0, i32 6
  %26 = load i32, ptr %i, align 4
  %idxprom46 = sext i32 %26 to i64
  %arrayidx47 = getelementptr inbounds [3 x %class.btRotationalLimitMotor2], ptr %m_angularLimits45, i64 0, i64 %idxprom46
  %m_stopERP = getelementptr inbounds %class.btRotationalLimitMotor2, ptr %arrayidx47, i32 0, i32 3
  store float %25, ptr %m_stopERP, align 4
  br label %if.end48

if.end48:                                         ; preds = %if.then44, %if.end
  %27 = load i32, ptr %flags, align 4
  %and49 = and i32 %27, 4
  %tobool50 = icmp ne i32 %and49, 0
  br i1 %tobool50, label %if.end57, label %if.then51

if.then51:                                        ; preds = %if.end48
  %28 = load ptr, ptr %info.addr, align 8
  %cfm52 = getelementptr inbounds %"struct.btTypedConstraint::btConstraintInfo2", ptr %28, i32 0, i32 8
  %29 = load ptr, ptr %cfm52, align 8
  %arrayidx53 = getelementptr inbounds float, ptr %29, i64 0
  %30 = load float, ptr %arrayidx53, align 4
  %m_angularLimits54 = getelementptr inbounds %class.btGeneric6DofSpring2Constraint, ptr %this1, i32 0, i32 6
  %31 = load i32, ptr %i, align 4
  %idxprom55 = sext i32 %31 to i64
  %arrayidx56 = getelementptr inbounds [3 x %class.btRotationalLimitMotor2], ptr %m_angularLimits54, i64 0, i64 %idxprom55
  %m_motorCFM = getelementptr inbounds %class.btRotationalLimitMotor2, ptr %arrayidx56, i32 0, i32 6
  store float %30, ptr %m_motorCFM, align 8
  br label %if.end57

if.end57:                                         ; preds = %if.then51, %if.end48
  %32 = load i32, ptr %flags, align 4
  %and58 = and i32 %32, 8
  %tobool59 = icmp ne i32 %and58, 0
  br i1 %tobool59, label %if.end65, label %if.then60

if.then60:                                        ; preds = %if.end57
  %33 = load ptr, ptr %info.addr, align 8
  %erp61 = getelementptr inbounds %"struct.btTypedConstraint::btConstraintInfo2", ptr %33, i32 0, i32 1
  %34 = load float, ptr %erp61, align 4
  %m_angularLimits62 = getelementptr inbounds %class.btGeneric6DofSpring2Constraint, ptr %this1, i32 0, i32 6
  %35 = load i32, ptr %i, align 4
  %idxprom63 = sext i32 %35 to i64
  %arrayidx64 = getelementptr inbounds [3 x %class.btRotationalLimitMotor2], ptr %m_angularLimits62, i64 0, i64 %idxprom63
  %m_motorERP = getelementptr inbounds %class.btRotationalLimitMotor2, ptr %arrayidx64, i32 0, i32 5
  store float %34, ptr %m_motorERP, align 4
  br label %if.end65

if.end65:                                         ; preds = %if.then60, %if.end57
  %m_angularLimits66 = getelementptr inbounds %class.btGeneric6DofSpring2Constraint, ptr %this1, i32 0, i32 6
  %36 = load i32, ptr %i, align 4
  %idxprom67 = sext i32 %36 to i64
  %arrayidx68 = getelementptr inbounds [3 x %class.btRotationalLimitMotor2], ptr %m_angularLimits66, i64 0, i64 %idxprom67
  %37 = load ptr, ptr %transA.addr, align 8
  %38 = load ptr, ptr %transB.addr, align 8
  %39 = load ptr, ptr %linVelA.addr, align 8
  %40 = load ptr, ptr %linVelB.addr, align 8
  %41 = load ptr, ptr %angVelA.addr, align 8
  %42 = load ptr, ptr %angVelB.addr, align 8
  %43 = load ptr, ptr %info.addr, align 8
  %44 = load i32, ptr %row, align 4
  %call69 = call noundef i32 @_ZN30btGeneric6DofSpring2Constraint21get_limit_motor_info2EP23btRotationalLimitMotor2RK11btTransformS4_RK9btVector3S7_S7_S7_PN17btTypedConstraint17btConstraintInfo2EiRS5_ii(ptr noundef nonnull align 8 dereferenceable(1484) %this1, ptr noundef %arrayidx68, ptr noundef nonnull align 4 dereferenceable(64) %37, ptr noundef nonnull align 4 dereferenceable(64) %38, ptr noundef nonnull align 4 dereferenceable(16) %39, ptr noundef nonnull align 4 dereferenceable(16) %40, ptr noundef nonnull align 4 dereferenceable(16) %41, ptr noundef nonnull align 4 dereferenceable(16) %42, ptr noundef %43, i32 noundef %44, ptr noundef nonnull align 4 dereferenceable(16) %axis, i32 noundef 1, i32 noundef 0)
  %45 = load i32, ptr %row, align 4
  %add70 = add nsw i32 %45, %call69
  store i32 %add70, ptr %row, align 4
  br label %if.end71

if.end71:                                         ; preds = %if.end65, %lor.lhs.false31
  br label %for.inc

for.inc:                                          ; preds = %if.end71
  %46 = load i32, ptr %ii, align 4
  %inc = add nsw i32 %46, 1
  store i32 %inc, ptr %ii, align 4
  br label %for.cond, !llvm.loop !10

for.end:                                          ; preds = %for.cond
  %47 = load i32, ptr %row, align 4
  ret i32 %47
}