; Function Attrs: mustprogress uwtable
define dso_local noundef i32 @_ZN30btGeneric6DofSpring2Constraint16setAngularLimitsEPN17btTypedConstraint17btConstraintInfo2EiRK11btTransformS5_RK9btVector3S8_S8_S8_(ptr noundef nonnull align 8 dereferenceable(1484) %this, ptr nocapture noundef readonly %info, i32 noundef %row_offset, ptr nocapture noundef nonnull readonly align 4 dereferenceable(64) %transA, ptr nocapture noundef nonnull readonly align 4 dereferenceable(64) %transB, ptr nocapture noundef nonnull readonly align 4 dereferenceable(16) %linVelA, ptr nocapture noundef nonnull readonly align 4 dereferenceable(16) %linVelB, ptr nocapture noundef nonnull readonly align 4 dereferenceable(16) %angVelA, ptr nocapture noundef nonnull readonly align 4 dereferenceable(16) %angVelB) local_unnamed_addr #4 align 2 {
entry:
  %cIdx = alloca [3 x i32], align 4
  %axis = alloca %class.btVector3, align 8
  call void @llvm.memcpy.p0.p0.i64(ptr noundef nonnull align 4 dereferenceable(12) %cIdx, ptr noundef nonnull align 4 dereferenceable(12) @__const._ZN30btGeneric6DofSpring2Constraint16setAngularLimitsEPN17btTypedConstraint17btConstraintInfo2EiRK11btTransformS5_RK9btVector3S8_S8_S8_.cIdx, i64 12, i1 false)
  %m_rotateOrder = getelementptr inbounds i8, ptr %this, i64 1256
  %0 = load i32, ptr %m_rotateOrder, align 8
  switch i32 %0, label %sw.epilog [
    i32 0, label %sw.bb
    i32 1, label %sw.bb4
    i32 2, label %sw.bb8
    i32 3, label %sw.bb12
    i32 4, label %sw.bb16
    i32 5, label %sw.bb20
  ]

sw.bb:                                            ; preds = %entry
  store i32 0, ptr %cIdx, align 4
  br label %sw.epilog.sink.split

sw.bb4:                                           ; preds = %entry
  store i32 0, ptr %cIdx, align 4
  br label %sw.epilog.sink.split

sw.bb8:                                           ; preds = %entry
  store i32 1, ptr %cIdx, align 4
  br label %sw.epilog.sink.split

sw.bb12:                                          ; preds = %entry
  store i32 1, ptr %cIdx, align 4
  br label %sw.epilog.sink.split

sw.bb16:                                          ; preds = %entry
  store i32 2, ptr %cIdx, align 4
  br label %sw.epilog.sink.split

sw.bb20:                                          ; preds = %entry
  store i32 2, ptr %cIdx, align 4
  br label %sw.epilog.sink.split

sw.epilog.sink.split:                             ; preds = %sw.bb, %sw.bb4, %sw.bb8, %sw.bb12, %sw.bb16, %sw.bb20
  %1 = phi <2 x i32> [ <i32 1, i32 0>, %sw.bb20 ], [ <i32 0, i32 1>, %sw.bb16 ], [ <i32 2, i32 0>, %sw.bb12 ], [ <i32 0, i32 2>, %sw.bb8 ], [ <i32 2, i32 1>, %sw.bb4 ], [ <i32 1, i32 2>, %sw.bb ]
  %arrayidx22 = getelementptr inbounds i8, ptr %cIdx, i64 4
  store <2 x i32> %1, ptr %arrayidx22, align 4
  br label %sw.epilog

sw.epilog:                                        ; preds = %sw.epilog.sink.split, %entry
  %m_angularLimits = getelementptr inbounds i8, ptr %this, i64 992
  %m_calculatedAxis.i = getelementptr inbounds i8, ptr %this, i64 1404
  %2 = getelementptr inbounds i8, ptr %axis, i64 8
  %m_flags = getelementptr inbounds i8, ptr %this, i64 1480
  %cfm = getelementptr inbounds i8, ptr %info, i64 56
  %erp = getelementptr inbounds i8, ptr %info, i64 4
  br label %for.body

for.body:                                         ; preds = %sw.epilog, %for.inc
  %indvars.iv = phi i64 [ 0, %sw.epilog ], [ %indvars.iv.next, %for.inc ]
  %row.022 = phi i32 [ %row_offset, %sw.epilog ], [ %row.1, %for.inc ]
  %arrayidx24 = getelementptr inbounds [3 x i32], ptr %cIdx, i64 0, i64 %indvars.iv
  %3 = load i32, ptr %arrayidx24, align 4
  %idxprom25 = sext i32 %3 to i64
  %arrayidx26 = getelementptr inbounds [3 x %class.btRotationalLimitMotor2], ptr %m_angularLimits, i64 0, i64 %idxprom25
  %m_currentLimit = getelementptr inbounds i8, ptr %arrayidx26, i64 84
  %4 = load i32, ptr %m_currentLimit, align 4
  %tobool.not = icmp eq i32 %4, 0
  br i1 %tobool.not, label %lor.lhs.false, label %if.then

lor.lhs.false:                                    ; preds = %for.body
  %m_enableMotor = getelementptr inbounds i8, ptr %arrayidx26, i64 28
  %5 = load i8, ptr %m_enableMotor, align 4
  %6 = and i8 %5, 1
  %tobool30.not = icmp eq i8 %6, 0
  br i1 %tobool30.not, label %lor.lhs.false31, label %if.then

lor.lhs.false31:                                  ; preds = %lor.lhs.false
  %m_enableSpring = getelementptr inbounds i8, ptr %arrayidx26, i64 48
  %7 = load i8, ptr %m_enableSpring, align 8
  %8 = and i8 %7, 1
  %tobool35.not = icmp eq i8 %8, 0
  br i1 %tobool35.not, label %for.inc, label %if.then

if.then:                                          ; preds = %lor.lhs.false31, %lor.lhs.false, %for.body
  %arrayidx.i = getelementptr inbounds [3 x %class.btVector3], ptr %m_calculatedAxis.i, i64 0, i64 %idxprom25
  %retval.sroa.0.0.copyload.i = load <2 x float>, ptr %arrayidx.i, align 4
  %retval.sroa.2.0.arrayidx.sroa_idx.i = getelementptr inbounds i8, ptr %arrayidx.i, i64 8
  %retval.sroa.2.0.copyload.i = load <2 x float>, ptr %retval.sroa.2.0.arrayidx.sroa_idx.i, align 4
  store <2 x float> %retval.sroa.0.0.copyload.i, ptr %axis, align 8
  store <2 x float> %retval.sroa.2.0.copyload.i, ptr %2, align 8
  %9 = load i32, ptr %m_flags, align 8
  %add = shl i32 %3, 2
  %mul = add i32 %add, 12
  %shr = ashr i32 %9, %mul
  %and = and i32 %shr, 1
  %tobool36.not = icmp eq i32 %and, 0
  br i1 %tobool36.not, label %if.then37, label %if.end

if.then37:                                        ; preds = %if.then
  %10 = load ptr, ptr %cfm, align 8
  %11 = load float, ptr %10, align 4
  %m_stopCFM = getelementptr inbounds i8, ptr %arrayidx26, i64 16
  store float %11, ptr %m_stopCFM, align 8
  br label %if.end

if.end:                                           ; preds = %if.then37, %if.then
  %and42 = and i32 %shr, 2
  %tobool43.not = icmp eq i32 %and42, 0
  br i1 %tobool43.not, label %if.then44, label %if.end48

if.then44:                                        ; preds = %if.end
  %12 = load float, ptr %erp, align 4
  %m_stopERP = getelementptr inbounds i8, ptr %arrayidx26, i64 12
  store float %12, ptr %m_stopERP, align 4
  br label %if.end48

if.end48:                                         ; preds = %if.then44, %if.end
  %and49 = and i32 %shr, 4
  %tobool50.not = icmp eq i32 %and49, 0
  br i1 %tobool50.not, label %if.then51, label %if.end57

if.then51:                                        ; preds = %if.end48
  %13 = load ptr, ptr %cfm, align 8
  %14 = load float, ptr %13, align 4
  %m_motorCFM = getelementptr inbounds i8, ptr %arrayidx26, i64 24
  store float %14, ptr %m_motorCFM, align 8
  br label %if.end57

if.end57:                                         ; preds = %if.then51, %if.end48
  %and58 = and i32 %shr, 8
  %tobool59.not = icmp eq i32 %and58, 0
  br i1 %tobool59.not, label %if.then60, label %if.end65

if.then60:                                        ; preds = %if.end57
  %15 = load float, ptr %erp, align 4
  %m_motorERP = getelementptr inbounds i8, ptr %arrayidx26, i64 20
  store float %15, ptr %m_motorERP, align 4
  br label %if.end65

if.end65:                                         ; preds = %if.then60, %if.end57
  %call69 = call noundef i32 @_ZN30btGeneric6DofSpring2Constraint21get_limit_motor_info2EP23btRotationalLimitMotor2RK11btTransformS4_RK9btVector3S7_S7_S7_PN17btTypedConstraint17btConstraintInfo2EiRS5_ii(ptr noundef nonnull align 8 dereferenceable(1484) %this, ptr noundef nonnull %arrayidx26, ptr noundef nonnull align 4 dereferenceable(64) %transA, ptr noundef nonnull align 4 dereferenceable(64) %transB, ptr noundef nonnull align 4 dereferenceable(16) %linVelA, ptr noundef nonnull align 4 dereferenceable(16) %linVelB, ptr noundef nonnull align 4 dereferenceable(16) %angVelA, ptr noundef nonnull align 4 dereferenceable(16) %angVelB, ptr noundef %info, i32 noundef %row.022, ptr noundef nonnull align 4 dereferenceable(16) %axis, i32 noundef 1, i32 noundef 0)
  %add70 = add nsw i32 %call69, %row.022
  br label %for.inc

for.inc:                                          ; preds = %lor.lhs.false31, %if.end65
  %row.1 = phi i32 [ %add70, %if.end65 ], [ %row.022, %lor.lhs.false31 ]
  %indvars.iv.next = add nuw nsw i64 %indvars.iv, 1
  %exitcond.not = icmp eq i64 %indvars.iv.next, 3
  br i1 %exitcond.not, label %for.end, label %for.body, !llvm.loop !36

for.end:                                          ; preds = %for.inc
  ret i32 %row.1
}